; Function Attrs: mustprogress uwtable
define void @_ZN6google8protobuf8compiler26CodeGeneratorResponse_File5ClearEv(ptr noundef nonnull align 8 dereferenceable(56) %this) unnamed_addr #3 align 2 {
entry:
  %0 = getelementptr inbounds i8, ptr %this, i64 16
  %1 = load i32, ptr %0, align 8
  %and = and i32 %1, 15
  %tobool.not = icmp eq i32 %and, 0
  br i1 %tobool.not, label %if.end17, label %if.then

if.then:                                          ; preds = %entry
  %and2 = and i32 %1, 1
  %tobool3.not = icmp eq i32 %and2, 0
  br i1 %tobool3.not, label %if.end, label %if.then4

if.then4:                                         ; preds = %if.then
  %name_ = getelementptr inbounds i8, ptr %this, i64 24
  %2 = load ptr, ptr %name_, align 8
  %3 = ptrtoint ptr %2 to i64
  %and.i.i = and i64 %3, -4
  %4 = inttoptr i64 %and.i.i to ptr
  tail call void @_ZNSt7__cxx1112basic_stringIcSt11char_traitsIcESaIcEE5clearEv(ptr noundef nonnull align 8 dereferenceable(32) %4) #18
  br label %if.end

if.end:                                           ; preds = %if.then4, %if.then
  %and5 = and i32 %1, 2
  %tobool6.not = icmp eq i32 %and5, 0
  br i1 %tobool6.not, label %if.end8, label %if.then7

if.then7:                                         ; preds = %if.end
  %insertion_point_ = getelementptr inbounds i8, ptr %this, i64 32
  %5 = load ptr, ptr %insertion_point_, align 8
  %6 = ptrtoint ptr %5 to i64
  %and.i.i5 = and i64 %6, -4
  %7 = inttoptr i64 %and.i.i5 to ptr
  tail call void @_ZNSt7__cxx1112basic_stringIcSt11char_traitsIcESaIcEE5clearEv(ptr noundef nonnull align 8 dereferenceable(32) %7) #18
  br label %if.end8

if.end8:                                          ; preds = %if.then7, %if.end
  %and9 = and i32 %1, 4
  %tobool10.not = icmp eq i32 %and9, 0
  br i1 %tobool10.not, label %if.end12, label %if.then11

if.then11:                                        ; preds = %if.end8
  %content_ = getelementptr inbounds i8, ptr %this, i64 40
  %8 = load ptr, ptr %content_, align 8
  %9 = ptrtoint ptr %8 to i64
  %and.i.i6 = and i64 %9, -4
  %10 = inttoptr i64 %and.i.i6 to ptr
  tail call void @_ZNSt7__cxx1112basic_stringIcSt11char_traitsIcESaIcEE5clearEv(ptr noundef nonnull align 8 dereferenceable(32) %10) #18
  br label %if.end12

if.end12:                                         ; preds = %if.then11, %if.end8
  %and13 = and i32 %1, 8
  %tobool14.not = icmp eq i32 %and13, 0
  br i1 %tobool14.not, label %if.end17, label %if.then15

if.then15:                                        ; preds = %if.end12
  %generated_code_info_ = getelementptr inbounds i8, ptr %this, i64 48
  %11 = load ptr, ptr %generated_code_info_, align 8
  tail call void @_ZN6google8protobuf17GeneratedCodeInfo5ClearEv(ptr noundef nonnull align 8 dereferenceable(48) %11)
  br label %if.end17

if.end17:                                         ; preds = %if.end12, %if.then15, %entry
  store i32 0, ptr %0, align 8
  %_internal_metadata_ = getelementptr inbounds i8, ptr %this, i64 8
  %12 = load i64, ptr %_internal_metadata_, align 8
  %and.i = and i64 %12, 1
  %tobool.i.not = icmp eq i64 %and.i, 0
  br i1 %tobool.i.not, label %_ZN6google8protobuf8internal16InternalMetadata5ClearINS0_15UnknownFieldSetEEEvv.exit, label %if.then.i

if.then.i:                                        ; preds = %if.end17
  tail call void @_ZN6google8protobuf8internal16InternalMetadata7DoClearINS0_15UnknownFieldSetEEEvv(ptr noundef nonnull align 8 dereferenceable(8) %_internal_metadata_)
  br label %_ZN6google8protobuf8internal16InternalMetadata5ClearINS0_15UnknownFieldSetEEEvv.exit

_ZN6google8protobuf8internal16InternalMetadata5ClearINS0_15UnknownFieldSetEEEvv.exit: ; preds = %if.then.i, %if.end17
  ret void
}